; Function Attrs: mustprogress uwtable
define hidden void @_ZN19OpenColorIO_v2_4dev11Lut1DOpData13Lut3by1DArray6resizeEmm(ptr noundef nonnull align 8 dereferenceable(48) %this, i64 noundef %length, i64 noundef %numColorComponents) unnamed_addr #3 align 2 personality ptr @__gxx_personality_v0 {
entry:
  %oss = alloca %"class.std::__cxx11::basic_ostringstream", align 8
  %ref.tmp = alloca %"class.std::__cxx11::basic_string", align 8
  %cmp = icmp ult i64 %length, 2
  br i1 %cmp, label %if.then, label %if.else

if.then:                                          ; preds = %entry
  %exception = tail call ptr @__cxa_allocate_exception(i64 16) #25
  invoke void @_ZN19OpenColorIO_v2_4dev9ExceptionC1EPKc(ptr noundef nonnull align 8 dereferenceable(16) %exception, ptr noundef nonnull @.str)
          to label %invoke.cont unwind label %lpad

invoke.cont:                                      ; preds = %if.then
  tail call void @__cxa_throw(ptr nonnull %exception, ptr nonnull @_ZTIN19OpenColorIO_v2_4dev9ExceptionE, ptr nonnull @_ZN19OpenColorIO_v2_4dev9ExceptionD1Ev) #26
  unreachable

lpad:                                             ; preds = %if.then
  %0 = landingpad { ptr, i32 }
          cleanup
  tail call void @__cxa_free_exception(ptr %exception) #25
  br label %eh.resume

if.else:                                          ; preds = %entry
  %cmp2 = icmp ugt i64 %length, 1048576
  br i1 %cmp2, label %if.then3, label %if.end17

if.then3:                                         ; preds = %if.else
  call void @_ZNSt7__cxx1119basic_ostringstreamIcSt11char_traitsIcESaIcEEC1Ev(ptr noundef nonnull align 8 dereferenceable(112) %oss)
  %call = invoke noundef nonnull align 8 dereferenceable(8) ptr @_ZStlsISt11char_traitsIcEERSt13basic_ostreamIcT_ES5_PKc(ptr noundef nonnull align 8 dereferenceable(8) %oss, ptr noundef nonnull @.str.2)
          to label %invoke.cont5 unwind label %lpad4

invoke.cont5:                                     ; preds = %if.then3
  %call7 = invoke noundef nonnull align 8 dereferenceable(8) ptr @_ZNSolsEm(ptr noundef nonnull align 8 dereferenceable(8) %call, i64 noundef %length)
          to label %invoke.cont6 unwind label %lpad4

invoke.cont6:                                     ; preds = %invoke.cont5
  %call9 = invoke noundef nonnull align 8 dereferenceable(8) ptr @_ZStlsISt11char_traitsIcEERSt13basic_ostreamIcT_ES5_PKc(ptr noundef nonnull align 8 dereferenceable(8) %call7, ptr noundef nonnull @.str.3)
          to label %invoke.cont8 unwind label %lpad4

invoke.cont8:                                     ; preds = %invoke.cont6
  %exception10 = call ptr @__cxa_allocate_exception(i64 16) #25
  invoke void @_ZNKSt7__cxx1119basic_ostringstreamIcSt11char_traitsIcESaIcEE3strEv(ptr nonnull sret(%"class.std::__cxx11::basic_string") align 8 %ref.tmp, ptr noundef nonnull align 8 dereferenceable(112) %oss)
          to label %invoke.cont12 unwind label %ehcleanup.thread

invoke.cont12:                                    ; preds = %invoke.cont8
  %call13 = call noundef ptr @_ZNKSt7__cxx1112basic_stringIcSt11char_traitsIcESaIcEE5c_strEv(ptr noundef nonnull align 8 dereferenceable(32) %ref.tmp) #25
  invoke void @_ZN19OpenColorIO_v2_4dev9ExceptionC1EPKc(ptr noundef nonnull align 8 dereferenceable(16) %exception10, ptr noundef %call13)
          to label %invoke.cont15 unwind label %ehcleanup.thread11

ehcleanup.thread11:                               ; preds = %invoke.cont12
  %1 = landingpad { ptr, i32 }
          cleanup
  call void @_ZNSt7__cxx1112basic_stringIcSt11char_traitsIcESaIcEED1Ev(ptr noundef nonnull align 8 dereferenceable(32) %ref.tmp) #25
  br label %cleanup.action

invoke.cont15:                                    ; preds = %invoke.cont12
  invoke void @__cxa_throw(ptr nonnull %exception10, ptr nonnull @_ZTIN19OpenColorIO_v2_4dev9ExceptionE, ptr nonnull @_ZN19OpenColorIO_v2_4dev9ExceptionD1Ev) #26
          to label %unreachable unwind label %ehcleanup

lpad4:                                            ; preds = %invoke.cont6, %invoke.cont5, %if.then3
  %2 = landingpad { ptr, i32 }
          cleanup
  br label %ehcleanup16

ehcleanup.thread:                                 ; preds = %invoke.cont8
  %3 = landingpad { ptr, i32 }
          cleanup
  br label %cleanup.action

ehcleanup:                                        ; preds = %invoke.cont15
  %4 = landingpad { ptr, i32 }
          cleanup
  call void @_ZNSt7__cxx1112basic_stringIcSt11char_traitsIcESaIcEED1Ev(ptr noundef nonnull align 8 dereferenceable(32) %ref.tmp) #25
  br label %ehcleanup16

cleanup.action:                                   ; preds = %ehcleanup.thread11, %ehcleanup.thread
  %.pn10 = phi { ptr, i32 } [ %3, %ehcleanup.thread ], [ %1, %ehcleanup.thread11 ]
  call void @__cxa_free_exception(ptr %exception10) #25
  br label %ehcleanup16

ehcleanup16:                                      ; preds = %ehcleanup, %cleanup.action, %lpad4
  %.pn.pn = phi { ptr, i32 } [ %.pn10, %cleanup.action ], [ %4, %ehcleanup ], [ %2, %lpad4 ]
  call void @_ZNSt7__cxx1119basic_ostringstreamIcSt11char_traitsIcESaIcEED1Ev(ptr noundef nonnull align 8 dereferenceable(112) %oss) #25
  br label %eh.resume

if.end17:                                         ; preds = %if.else
  %m_length.i = getelementptr inbounds i8, ptr %this, i64 8
  store i64 %length, ptr %m_length.i, align 8
  %m_numColorComponents.i = getelementptr inbounds i8, ptr %this, i64 16
  store i64 %numColorComponents, ptr %m_numColorComponents.i, align 8
  %m_data.i = getelementptr inbounds i8, ptr %this, i64 24
  %vtable.i = load ptr, ptr %this, align 8
  %vfn.i = getelementptr inbounds i8, ptr %vtable.i, i64 48
  %5 = load ptr, ptr %vfn.i, align 8
  %call.i = tail call noundef i64 %5(ptr noundef nonnull align 8 dereferenceable(8) %this)
  %_M_finish.i.i.i = getelementptr inbounds i8, ptr %this, i64 32
  %6 = load ptr, ptr %_M_finish.i.i.i, align 8
  %7 = load ptr, ptr %m_data.i, align 8
  %sub.ptr.lhs.cast.i.i.i = ptrtoint ptr %6 to i64
  %sub.ptr.rhs.cast.i.i.i = ptrtoint ptr %7 to i64
  %sub.ptr.sub.i.i.i = sub i64 %sub.ptr.lhs.cast.i.i.i, %sub.ptr.rhs.cast.i.i.i
  %sub.ptr.div.i.i.i = ashr exact i64 %sub.ptr.sub.i.i.i, 2
  %cmp.i.i = icmp ult i64 %sub.ptr.div.i.i.i, %call.i
  br i1 %cmp.i.i, label %if.then.i.i, label %if.else.i.i

if.then.i.i:                                      ; preds = %if.end17
  %sub.i.i = sub i64 %call.i, %sub.ptr.div.i.i.i
  tail call void @_ZNSt6vectorIfSaIfEE17_M_default_appendEm(ptr noundef nonnull align 8 dereferenceable(24) %m_data.i, i64 noundef %sub.i.i)
  br label %_ZN19OpenColorIO_v2_4dev6ArrayTIfE6resizeEmm.exit

if.else.i.i:                                      ; preds = %if.end17
  %cmp4.i.i = icmp ugt i64 %sub.ptr.div.i.i.i, %call.i
  br i1 %cmp4.i.i, label %if.then5.i.i, label %_ZN19OpenColorIO_v2_4dev6ArrayTIfE6resizeEmm.exit

if.then5.i.i:                                     ; preds = %if.else.i.i
  %add.ptr.i.i = getelementptr inbounds float, ptr %7, i64 %call.i
  %tobool.not.i.i.i = icmp eq ptr %6, %add.ptr.i.i
  br i1 %tobool.not.i.i.i, label %_ZN19OpenColorIO_v2_4dev6ArrayTIfE6resizeEmm.exit, label %invoke.cont.i.i.i

invoke.cont.i.i.i:                                ; preds = %if.then5.i.i
  store ptr %add.ptr.i.i, ptr %_M_finish.i.i.i, align 8
  br label %_ZN19OpenColorIO_v2_4dev6ArrayTIfE6resizeEmm.exit

_ZN19OpenColorIO_v2_4dev6ArrayTIfE6resizeEmm.exit: ; preds = %if.then.i.i, %if.else.i.i, %if.then5.i.i, %invoke.cont.i.i.i
  ret void

eh.resume:                                        ; preds = %ehcleanup16, %lpad
  %.pn6 = phi { ptr, i32 } [ %0, %lpad ], [ %.pn.pn, %ehcleanup16 ]
  resume { ptr, i32 } %.pn6

unreachable:                                      ; preds = %invoke.cont15
  unreachable
}